target datalayout = "e-m:e-p270:32:32-p271:32:32-p272:64:64-i64:64-i128:128-f80:128-n8:16:32:64-S128"
target triple = "x86_64-unknown-linux-gnu"

%"class.QuantLib::NonCentralCumulativeChiSquareDistribution" = type { double, double }
%"class.QuantLib::InverseNonCentralCumulativeChiSquareDistribution" = type { %"class.QuantLib::NonCentralCumulativeChiSquareDistribution", double, i64, double }

; Function Attrs: mustprogress nounwind uwtable
define linkonce_odr void @_ZN8QuantLib41NonCentralCumulativeChiSquareDistributionC2Edd(ptr noundef nonnull align 8 dereferenceable(16) %this, double noundef %df, double noundef %ncp) unnamed_addr #4 comdat align 2 {
entry:
  %this.addr = alloca ptr, align 8
  %df.addr = alloca double, align 8
  %ncp.addr = alloca double, align 8
  store ptr %this, ptr %this.addr, align 8, !tbaa !3
  store double %df, ptr %df.addr, align 8, !tbaa !7
  store double %ncp, ptr %ncp.addr, align 8, !tbaa !7
  %this1 = load ptr, ptr %this.addr, align 8
  %df_ = getelementptr inbounds nuw %"class.QuantLib::NonCentralCumulativeChiSquareDistribution", ptr %this1, i32 0, i32 0
  %0 = load double, ptr %df.addr, align 8, !tbaa !7
  store double %0, ptr %df_, align 8, !tbaa !19
  %ncp_ = getelementptr inbounds nuw %"class.QuantLib::NonCentralCumulativeChiSquareDistribution", ptr %this1, i32 0, i32 1
  %1 = load double, ptr %ncp.addr, align 8, !tbaa !7
  store double %1, ptr %ncp_, align 8, !tbaa !15
  ret void
}

; Function Attrs: mustprogress uwtable
define void @_ZN8QuantLib48InverseNonCentralCumulativeChiSquareDistributionC2Eddmd(ptr noundef nonnull align 8 dereferenceable(40) %this, double noundef %df, double noundef %ncp, i64 noundef %maxEvaluations, double noundef %accuracy) unnamed_addr #0 align 2 {
entry:
  %this.addr = alloca ptr, align 8
  %df.addr = alloca double, align 8
  %ncp.addr = alloca double, align 8
  %maxEvaluations.addr = alloca i64, align 8
  %accuracy.addr = alloca double, align 8
  store ptr %this, ptr %this.addr, align 8, !tbaa !3
  store double %df, ptr %df.addr, align 8, !tbaa !7
  store double %ncp, ptr %ncp.addr, align 8, !tbaa !7
  store i64 %maxEvaluations, ptr %maxEvaluations.addr, align 8, !tbaa !13
  store double %accuracy, ptr %accuracy.addr, align 8, !tbaa !7
  %this1 = load ptr, ptr %this.addr, align 8
  %nonCentralDist_ = getelementptr inbounds nuw %"class.QuantLib::InverseNonCentralCumulativeChiSquareDistribution", ptr %this1, i32 0, i32 0
  %0 = load double, ptr %df.addr, align 8, !tbaa !7
  %1 = load double, ptr %ncp.addr, align 8, !tbaa !7
  call void @_ZN8QuantLib41NonCentralCumulativeChiSquareDistributionC2Edd(ptr noundef nonnull align 8 dereferenceable(16) %nonCentralDist_, double noundef %0, double noundef %1)
  %guess_ = getelementptr inbounds nuw %"class.QuantLib::InverseNonCentralCumulativeChiSquareDistribution", ptr %this1, i32 0, i32 1
  %2 = load double, ptr %df.addr, align 8, !tbaa !7
  %3 = load double, ptr %ncp.addr, align 8, !tbaa !7
  %add = fadd double %2, %3
  store double %add, ptr %guess_, align 8, !tbaa !37
  %maxEvaluations_ = getelementptr inbounds nuw %"class.QuantLib::InverseNonCentralCumulativeChiSquareDistribution", ptr %this1, i32 0, i32 2
  %4 = load i64, ptr %maxEvaluations.addr, align 8, !tbaa !13
  store i64 %4, ptr %maxEvaluations_, align 8, !tbaa !39
  %accuracy_ = getelementptr inbounds nuw %"class.QuantLib::InverseNonCentralCumulativeChiSquareDistribution", ptr %this1, i32 0, i32 3
  %5 = load double, ptr %accuracy.addr, align 8, !tbaa !7
  store double %5, ptr %accuracy_, align 8, !tbaa !40
  ret void
}