; Function Attrs: mustprogress nofree norecurse nosync nounwind willreturn memory(argmem: write) uwtable
define void @_ZN8QuantLib48InverseNonCentralCumulativeChiSquareDistributionC2Eddmd(ptr nocapture noundef nonnull writeonly align 8 dereferenceable(40) %this, double noundef %df, double noundef %ncp, i64 noundef %maxEvaluations, double noundef %accuracy) unnamed_addr #8 align 2 {
entry:
  store double %df, ptr %this, align 8, !tbaa !21
  %ncp_.i = getelementptr inbounds nuw i8, ptr %this, i64 8
  store double %ncp, ptr %ncp_.i, align 8, !tbaa !17
  %guess_ = getelementptr inbounds nuw i8, ptr %this, i64 16
  %add = fadd double %df, %ncp
  store double %add, ptr %guess_, align 8, !tbaa !44
  %maxEvaluations_ = getelementptr inbounds nuw i8, ptr %this, i64 24
  store i64 %maxEvaluations, ptr %maxEvaluations_, align 8, !tbaa !46
  %accuracy_ = getelementptr inbounds nuw i8, ptr %this, i64 32
  store double %accuracy, ptr %accuracy_, align 8, !tbaa !47
  ret void
}